target datalayout = "e-m:e-p270:32:32-p271:32:32-p272:64:64-i64:64-i128:128-f80:128-n8:16:32:64-S128"
target triple = "x86_64-pc-linux-gnu"

@sTileMaxW = internal global i32 0, align 4
@sTileMaxH = internal global i32 0, align 4

; Function Attrs: nounwind uwtable
define void @exr_set_default_maximum_tile_size(i32 noundef %0, i32 noundef %1) #0 {
  %3 = alloca i32, align 4
  %4 = alloca i32, align 4
  store i32 %0, ptr %3, align 4, !tbaa !11
  store i32 %1, ptr %4, align 4, !tbaa !11
  %5 = load i32, ptr %3, align 4, !tbaa !11
  %6 = icmp sge i32 %5, 0
  br i1 %6, label %7, label %13

7:                                                ; preds = %2
  %8 = load i32, ptr %4, align 4, !tbaa !11
  %9 = icmp sge i32 %8, 0
  br i1 %9, label %10, label %13

10:                                               ; preds = %7
  %11 = load i32, ptr %3, align 4, !tbaa !11
  store i32 %11, ptr @sTileMaxW, align 4, !tbaa !11
  %12 = load i32, ptr %4, align 4, !tbaa !11
  store i32 %12, ptr @sTileMaxH, align 4, !tbaa !11
  br label %13

13:                                               ; preds = %10, %7, %2
  ret void
}